target datalayout = "e-m:e-p270:32:32-p271:32:32-p272:64:64-i64:64-i128:128-f80:128-n8:16:32:64-S128"
target triple = "x86_64-pc-linux-gnu"

%struct.stbi__zbuf = type { ptr, ptr, i32, i32, ptr, ptr, ptr, i32, %struct.stbi__zhuffman, %struct.stbi__zhuffman }
%struct.stbi__zhuffman = type { [512 x i16], [16 x i16], [17 x i32], [16 x i16], [288 x i8], [288 x i16] }

; Function Attrs: mustprogress nounwind uwtable
define internal noundef ptr @_ZL12stbi__mallocm(i64 noundef %0) #0 {
  %2 = alloca i64, align 8
  store i64 %0, ptr %2, align 8, !tbaa !40
  %3 = load i64, ptr %2, align 8, !tbaa !40
  %4 = call noalias ptr @malloc(i64 noundef %3) #24
  ret ptr %4
}

; Function Attrs: mustprogress uwtable
define dso_local ptr @stbi_zlib_decode_noheader_malloc(ptr noundef %0, i32 noundef %1, ptr noundef %2) #2 {
  %4 = alloca ptr, align 8
  %5 = alloca ptr, align 8
  %6 = alloca i32, align 4
  %7 = alloca ptr, align 8
  %8 = alloca %struct.stbi__zbuf, align 8
  %9 = alloca ptr, align 8
  %10 = alloca i32, align 4
  store ptr %0, ptr %5, align 8, !tbaa !5
  store i32 %1, ptr %6, align 4, !tbaa !11
  store ptr %2, ptr %7, align 8, !tbaa !13
  call void @llvm.lifetime.start.p0(i64 4096, ptr %8) #22
  call void @llvm.lifetime.start.p0(i64 8, ptr %9) #22
  %11 = call noundef ptr @_ZL12stbi__mallocm(i64 noundef 16384)
  store ptr %11, ptr %9, align 8, !tbaa !5
  %12 = load ptr, ptr %9, align 8, !tbaa !5
  %13 = icmp eq ptr %12, null
  br i1 %13, label %14, label %15

14:                                               ; preds = %3
  store ptr null, ptr %4, align 8
  store i32 1, ptr %10, align 4
  br label %45

15:                                               ; preds = %3
  %16 = load ptr, ptr %5, align 8, !tbaa !5
  %17 = getelementptr inbounds nuw %struct.stbi__zbuf, ptr %8, i32 0, i32 0
  store ptr %16, ptr %17, align 8, !tbaa !114
  %18 = load ptr, ptr %5, align 8, !tbaa !5
  %19 = load i32, ptr %6, align 4, !tbaa !11
  %20 = sext i32 %19 to i64
  %21 = getelementptr inbounds i8, ptr %18, i64 %20
  %22 = getelementptr inbounds nuw %struct.stbi__zbuf, ptr %8, i32 0, i32 1
  store ptr %21, ptr %22, align 8, !tbaa !117
  %23 = load ptr, ptr %9, align 8, !tbaa !5
  %24 = call noundef i32 @_ZL13stbi__do_zlibP10stbi__zbufPciii(ptr noundef %8, ptr noundef %23, i32 noundef 16384, i32 noundef 1, i32 noundef 0)
  %25 = icmp ne i32 %24, 0
  br i1 %25, label %26, label %42

26:                                               ; preds = %15
  %27 = load ptr, ptr %7, align 8, !tbaa !13
  %28 = icmp ne ptr %27, null
  br i1 %28, label %29, label %39

29:                                               ; preds = %26
  %30 = getelementptr inbounds nuw %struct.stbi__zbuf, ptr %8, i32 0, i32 4
  %31 = load ptr, ptr %30, align 8, !tbaa !118
  %32 = getelementptr inbounds nuw %struct.stbi__zbuf, ptr %8, i32 0, i32 5
  %33 = load ptr, ptr %32, align 8, !tbaa !119
  %34 = ptrtoint ptr %31 to i64
  %35 = ptrtoint ptr %33 to i64
  %36 = sub i64 %34, %35
  %37 = trunc i64 %36 to i32
  %38 = load ptr, ptr %7, align 8, !tbaa !13
  store i32 %37, ptr %38, align 4, !tbaa !11
  br label %39

39:                                               ; preds = %29, %26
  %40 = getelementptr inbounds nuw %struct.stbi__zbuf, ptr %8, i32 0, i32 5
  %41 = load ptr, ptr %40, align 8, !tbaa !119
  store ptr %41, ptr %4, align 8
  store i32 1, ptr %10, align 4
  br label %45

42:                                               ; preds = %15
  %43 = getelementptr inbounds nuw %struct.stbi__zbuf, ptr %8, i32 0, i32 5
  %44 = load ptr, ptr %43, align 8, !tbaa !119
  call void @free(ptr noundef %44) #22
  store ptr null, ptr %4, align 8
  store i32 1, ptr %10, align 4
  br label %45

45:                                               ; preds = %42, %39, %14
  call void @llvm.lifetime.end.p0(i64 8, ptr %9) #22
  call void @llvm.lifetime.end.p0(i64 4096, ptr %8) #22
  %46 = load ptr, ptr %4, align 8
  ret ptr %46
}