; Function Attrs: mustprogress nounwind uwtable
define dso_local ptr @stbi_zlib_decode_noheader_malloc(ptr noundef %0, i32 noundef %1, ptr noundef writeonly %2) local_unnamed_addr #12 {
  %4 = alloca %struct.stbi__zbuf, align 8
  call void @llvm.lifetime.start.p0(i64 4096, ptr nonnull %4) #35
  %5 = tail call noalias noundef dereferenceable_or_null(16384) ptr @malloc(i64 noundef 16384) #36
  %6 = icmp eq ptr %5, null
  br i1 %6, label %25, label %7

7:                                                ; preds = %3
  store ptr %0, ptr %4, align 8, !tbaa !169
  %8 = sext i32 %1 to i64
  %9 = getelementptr inbounds i8, ptr %0, i64 %8
  %10 = getelementptr inbounds nuw i8, ptr %4, i64 8
  store ptr %9, ptr %10, align 8, !tbaa !172
  %11 = call fastcc noundef i32 @_ZL13stbi__do_zlibP10stbi__zbufPciii(ptr noundef %4, ptr noundef nonnull %5, i32 noundef 16384, i32 noundef 1, i32 noundef 0)
  %.not = icmp eq i32 %11, 0
  br i1 %.not, label %22, label %12

12:                                               ; preds = %7
  %.not9 = icmp eq ptr %2, null
  br i1 %.not9, label %._crit_edge, label %13

._crit_edge:                                      ; preds = %12
  %.phi.trans.insert = getelementptr inbounds nuw i8, ptr %4, i64 32
  %.pre = load ptr, ptr %.phi.trans.insert, align 8, !tbaa !173
  br label %25

13:                                               ; preds = %12
  %14 = getelementptr inbounds nuw i8, ptr %4, i64 24
  %15 = load ptr, ptr %14, align 8, !tbaa !174
  %16 = getelementptr inbounds nuw i8, ptr %4, i64 32
  %17 = load ptr, ptr %16, align 8, !tbaa !173
  %18 = ptrtoint ptr %15 to i64
  %19 = ptrtoint ptr %17 to i64
  %20 = sub i64 %18, %19
  %21 = trunc i64 %20 to i32
  store i32 %21, ptr %2, align 4, !tbaa !10
  br label %25

22:                                               ; preds = %7
  %23 = getelementptr inbounds nuw i8, ptr %4, i64 32
  %24 = load ptr, ptr %23, align 8, !tbaa !173
  call void @free(ptr noundef %24) #35
  br label %25

25:                                               ; preds = %13, %._crit_edge, %3, %22
  %.0 = phi ptr [ null, %22 ], [ null, %3 ], [ %.pre, %._crit_edge ], [ %17, %13 ]
  call void @llvm.lifetime.end.p0(i64 4096, ptr nonnull %4) #35
  ret ptr %.0
}